; Function Attrs: nounwind uwtable
define dso_local void @uv_key_set(ptr noundef readonly captures(none) %0, ptr noundef %1) local_unnamed_addr #0 {
  %3 = load i32, ptr %0, align 4, !tbaa !14
  %4 = tail call i32 @pthread_setspecific(i32 noundef %3, ptr noundef %1) #10
  %.not = icmp eq i32 %4, 0
  br i1 %.not, label %6, label %5

5:                                                ; preds = %2
  tail call void @abort() #11
  unreachable

6:                                                ; preds = %2
  ret void
}